target datalayout = "e-m:e-p270:32:32-p271:32:32-p272:64:64-i64:64-i128:128-f80:128-n8:16:32:64-S128"
target triple = "x86_64-pc-linux-gnu"

%struct._e_prefs = type { ptr, i32, %struct.color_t, %struct.color_t, %struct.color_t, %struct.color_t, %struct.color_t, %struct.color_t, %struct.color_t, i8, i32, ptr, i32, %struct.color_t, %struct.color_t, i32, %struct.color_t, %struct.color_t, i32, %struct.color_t, %struct.color_t, %struct.color_t, %struct.color_t, ptr, ptr, i8, i8, i8, i32, i32, i32, ptr, i32, ptr, i8, i8, i8, ptr, ptr, ptr, i32, i32, i32, i32, i8, i32, i32, i32, i32, i32, ptr, i8, i8, i8, i8, i8, ptr, ptr, ptr, ptr, ptr, ptr, ptr, ptr, ptr, i8, i8, i8, i8, i32, i8, i8, i8, ptr, i32, i8, i8, i32, i8, i8, i8, i32, i8, i32, i8, i8, i8, i32, i32, i32, ptr, i8, i8, i8, i8, i8, i8, i32, i32, i8, i8, i8, i8, i32, i32, i32, i32, i8, i8, i32, i8, i8, i32, i32, i8, i8, i8, i32, i8, i8, i8 }
%struct.color_t = type { i16, i16, i16 }
%struct.wscbor_chunk_t = type { ptr, i32, i32, i32, ptr, ptr, i32, i8, i64 }

@prefs = external global %struct._e_prefs, align 8

; Function Attrs: nounwind null_pointer_is_valid sspstrong uwtable
define zeroext i1 @wscbor_is_indefinite_break(ptr noundef %0) #6 {
  %2 = alloca ptr, align 8
  store ptr %0, ptr %2, align 8
  %3 = load ptr, ptr %2, align 8
  %4 = getelementptr inbounds nuw %struct.wscbor_chunk_t, ptr %3, i32 0, i32 6
  %5 = load i32, ptr %4, align 8
  %6 = icmp eq i32 %5, 7
  br i1 %6, label %7, label %13

7:                                                ; preds = %1
  %8 = load ptr, ptr %2, align 8
  %9 = getelementptr inbounds nuw %struct.wscbor_chunk_t, ptr %8, i32 0, i32 7
  %10 = load i8, ptr %9, align 4
  %11 = zext i8 %10 to i32
  %12 = icmp eq i32 %11, 31
  br label %13

13:                                               ; preds = %7, %1
  %14 = phi i1 [ false, %1 ], [ %12, %7 ]
  ret i1 %14
}

; Function Attrs: null_pointer_is_valid sspstrong uwtable
define i32 @wscbor_has_errors(ptr noundef %0) #0 {
  %2 = alloca ptr, align 8
  store ptr %0, ptr %2, align 8
  %3 = load ptr, ptr %2, align 8
  %4 = getelementptr inbounds nuw %struct.wscbor_chunk_t, ptr %3, i32 0, i32 4
  %5 = load ptr, ptr %4, align 8
  %6 = call i32 @wmem_list_count(ptr noundef %5)
  ret i32 %6
}

; Function Attrs: null_pointer_is_valid sspstrong uwtable
define internal zeroext i1 @wscbor_skip_next_item_internal(ptr noundef %0, ptr noundef %1, ptr noundef %2, ptr noundef %3, i32 noundef %4) #0 {
  %6 = alloca i1, align 1
  %7 = alloca ptr, align 8
  %8 = alloca ptr, align 8
  %9 = alloca ptr, align 8
  %10 = alloca ptr, align 8
  %11 = alloca i32, align 4
  %12 = alloca ptr, align 8
  %13 = alloca i32, align 4
  %14 = alloca i8, align 1
  %15 = alloca i64, align 8
  %16 = alloca i64, align 8
  %17 = alloca i8, align 1
  %18 = alloca i64, align 8
  %19 = alloca i64, align 8
  %20 = alloca i8, align 1
  store ptr %0, ptr %7, align 8
  store ptr %1, ptr %8, align 8
  store ptr %2, ptr %9, align 8
  store ptr %3, ptr %10, align 8
  store i32 %4, ptr %11, align 4
  %21 = load i32, ptr %11, align 4
  %22 = load i32, ptr getelementptr inbounds nuw (%struct._e_prefs, ptr @prefs, i32 0, i32 43), align 4
  %23 = icmp ugt i32 %21, %22
  br i1 %23, label %24, label %25

24:                                               ; preds = %5
  store i1 false, ptr %6, align 1
  br label %175

25:                                               ; preds = %5
  call void @llvm.lifetime.start.p0(i64 8, ptr %12) #7
  %26 = load ptr, ptr %7, align 8
  %27 = load ptr, ptr %8, align 8
  %28 = load ptr, ptr %9, align 8
  %29 = call ptr @wscbor_chunk_read(ptr noundef %26, ptr noundef %27, ptr noundef %28)
  store ptr %29, ptr %12, align 8
  %30 = load ptr, ptr %12, align 8
  %31 = call i32 @wscbor_has_errors(ptr noundef %30)
  %32 = icmp ne i32 %31, 0
  br i1 %32, label %33, label %35

33:                                               ; preds = %25
  %34 = load ptr, ptr %12, align 8
  call void @wscbor_chunk_free(ptr noundef %34)
  store i1 false, ptr %6, align 1
  store i32 1, ptr %13, align 4
  br label %174

35:                                               ; preds = %25
  %36 = load ptr, ptr %12, align 8
  %37 = getelementptr inbounds nuw %struct.wscbor_chunk_t, ptr %36, i32 0, i32 6
  %38 = load i32, ptr %37, align 8
  switch i32 %38, label %153 [
    i32 0, label %39
    i32 1, label %39
    i32 6, label %39
    i32 7, label %39
    i32 2, label %40
    i32 3, label %40
    i32 4, label %41
    i32 5, label %93
  ]

39:                                               ; preds = %35, %35, %35, %35
  br label %153

40:                                               ; preds = %35, %35
  br label %153

41:                                               ; preds = %35
  %42 = load ptr, ptr %12, align 8
  %43 = getelementptr inbounds nuw %struct.wscbor_chunk_t, ptr %42, i32 0, i32 7
  %44 = load i8, ptr %43, align 4
  %45 = zext i8 %44 to i32
  %46 = icmp eq i32 %45, 31
  br i1 %46, label %47, label %65

47:                                               ; preds = %41
  call void @llvm.lifetime.start.p0(i64 1, ptr %14) #7
  store i8 0, ptr %14, align 1
  br label %48

48:                                               ; preds = %57, %47
  %49 = load ptr, ptr %7, align 8
  %50 = load ptr, ptr %8, align 8
  %51 = load ptr, ptr %9, align 8
  %52 = load i32, ptr %11, align 4
  %53 = add i32 %52, 1
  %54 = call zeroext i1 @wscbor_skip_next_item_internal(ptr noundef %49, ptr noundef %50, ptr noundef %51, ptr noundef %14, i32 noundef %53)
  br i1 %54, label %56, label %55

55:                                               ; preds = %48
  store i1 false, ptr %6, align 1
  store i32 1, ptr %13, align 4
  br label %62

56:                                               ; preds = %48
  br label %57

57:                                               ; preds = %56
  %58 = load i8, ptr %14, align 1, !range !6, !noundef !7
  %59 = trunc i8 %58 to i1
  %60 = xor i1 %59, true
  br i1 %60, label %48, label %61, !llvm.loop !8

61:                                               ; preds = %57
  store i32 0, ptr %13, align 4
  br label %62

62:                                               ; preds = %61, %55
  call void @llvm.lifetime.end.p0(i64 1, ptr %14) #7
  %63 = load i32, ptr %13, align 4
  switch i32 %63, label %174 [
    i32 0, label %64
  ]

64:                                               ; preds = %62
  br label %92

65:                                               ; preds = %41
  call void @llvm.lifetime.start.p0(i64 8, ptr %15) #7
  %66 = load ptr, ptr %12, align 8
  %67 = getelementptr inbounds nuw %struct.wscbor_chunk_t, ptr %66, i32 0, i32 8
  %68 = load i64, ptr %67, align 8
  store i64 %68, ptr %15, align 8
  call void @llvm.lifetime.start.p0(i64 8, ptr %16) #7
  store i64 0, ptr %16, align 8
  br label %69

69:                                               ; preds = %83, %65
  %70 = load i64, ptr %16, align 8
  %71 = load i64, ptr %15, align 8
  %72 = icmp ult i64 %70, %71
  br i1 %72, label %74, label %73

73:                                               ; preds = %69
  store i32 5, ptr %13, align 4
  br label %86

74:                                               ; preds = %69
  %75 = load ptr, ptr %7, align 8
  %76 = load ptr, ptr %8, align 8
  %77 = load ptr, ptr %9, align 8
  %78 = load i32, ptr %11, align 4
  %79 = add i32 %78, 1
  %80 = call zeroext i1 @wscbor_skip_next_item_internal(ptr noundef %75, ptr noundef %76, ptr noundef %77, ptr noundef null, i32 noundef %79)
  br i1 %80, label %82, label %81

81:                                               ; preds = %74
  store i1 false, ptr %6, align 1
  store i32 1, ptr %13, align 4
  br label %86

82:                                               ; preds = %74
  br label %83

83:                                               ; preds = %82
  %84 = load i64, ptr %16, align 8
  %85 = add i64 %84, 1
  store i64 %85, ptr %16, align 8
  br label %69, !llvm.loop !10

86:                                               ; preds = %81, %73
  call void @llvm.lifetime.end.p0(i64 8, ptr %16) #7
  %87 = load i32, ptr %13, align 4
  switch i32 %87, label %89 [
    i32 5, label %88
  ]

88:                                               ; preds = %86
  store i32 0, ptr %13, align 4
  br label %89

89:                                               ; preds = %88, %86
  call void @llvm.lifetime.end.p0(i64 8, ptr %15) #7
  %90 = load i32, ptr %13, align 4
  switch i32 %90, label %174 [
    i32 0, label %91
  ]

91:                                               ; preds = %89
  br label %92

92:                                               ; preds = %91, %64
  br label %153

93:                                               ; preds = %35
  %94 = load ptr, ptr %12, align 8
  %95 = getelementptr inbounds nuw %struct.wscbor_chunk_t, ptr %94, i32 0, i32 7
  %96 = load i8, ptr %95, align 4
  %97 = zext i8 %96 to i32
  %98 = icmp eq i32 %97, 31
  br i1 %98, label %99, label %117

99:                                               ; preds = %93
  call void @llvm.lifetime.start.p0(i64 1, ptr %17) #7
  store i8 0, ptr %17, align 1
  br label %100

100:                                              ; preds = %109, %99
  %101 = load ptr, ptr %7, align 8
  %102 = load ptr, ptr %8, align 8
  %103 = load ptr, ptr %9, align 8
  %104 = load i32, ptr %11, align 4
  %105 = add i32 %104, 1
  %106 = call zeroext i1 @wscbor_skip_next_item_internal(ptr noundef %101, ptr noundef %102, ptr noundef %103, ptr noundef %17, i32 noundef %105)
  br i1 %106, label %108, label %107

107:                                              ; preds = %100
  store i1 false, ptr %6, align 1
  store i32 1, ptr %13, align 4
  br label %114

108:                                              ; preds = %100
  br label %109

109:                                              ; preds = %108
  %110 = load i8, ptr %17, align 1, !range !6, !noundef !7
  %111 = trunc i8 %110 to i1
  %112 = xor i1 %111, true
  br i1 %112, label %100, label %113, !llvm.loop !11

113:                                              ; preds = %109
  store i32 0, ptr %13, align 4
  br label %114

114:                                              ; preds = %113, %107
  call void @llvm.lifetime.end.p0(i64 1, ptr %17) #7
  %115 = load i32, ptr %13, align 4
  switch i32 %115, label %174 [
    i32 0, label %116
  ]

116:                                              ; preds = %114
  br label %152

117:                                              ; preds = %93
  call void @llvm.lifetime.start.p0(i64 8, ptr %18) #7
  %118 = load ptr, ptr %12, align 8
  %119 = getelementptr inbounds nuw %struct.wscbor_chunk_t, ptr %118, i32 0, i32 8
  %120 = load i64, ptr %119, align 8
  store i64 %120, ptr %18, align 8
  call void @llvm.lifetime.start.p0(i64 8, ptr %19) #7
  store i64 0, ptr %19, align 8
  br label %121

121:                                              ; preds = %143, %117
  %122 = load i64, ptr %19, align 8
  %123 = load i64, ptr %18, align 8
  %124 = icmp ult i64 %122, %123
  br i1 %124, label %126, label %125

125:                                              ; preds = %121
  store i32 10, ptr %13, align 4
  br label %146

126:                                              ; preds = %121
  %127 = load ptr, ptr %7, align 8
  %128 = load ptr, ptr %8, align 8
  %129 = load ptr, ptr %9, align 8
  %130 = load i32, ptr %11, align 4
  %131 = add i32 %130, 1
  %132 = call zeroext i1 @wscbor_skip_next_item_internal(ptr noundef %127, ptr noundef %128, ptr noundef %129, ptr noundef null, i32 noundef %131)
  br i1 %132, label %134, label %133

133:                                              ; preds = %126
  store i1 false, ptr %6, align 1
  store i32 1, ptr %13, align 4
  br label %146

134:                                              ; preds = %126
  %135 = load ptr, ptr %7, align 8
  %136 = load ptr, ptr %8, align 8
  %137 = load ptr, ptr %9, align 8
  %138 = load i32, ptr %11, align 4
  %139 = add i32 %138, 1
  %140 = call zeroext i1 @wscbor_skip_next_item_internal(ptr noundef %135, ptr noundef %136, ptr noundef %137, ptr noundef null, i32 noundef %139)
  br i1 %140, label %142, label %141

141:                                              ; preds = %134
  store i1 false, ptr %6, align 1
  store i32 1, ptr %13, align 4
  br label %146

142:                                              ; preds = %134
  br label %143

143:                                              ; preds = %142
  %144 = load i64, ptr %19, align 8
  %145 = add i64 %144, 1
  store i64 %145, ptr %19, align 8
  br label %121, !llvm.loop !12

146:                                              ; preds = %141, %133, %125
  call void @llvm.lifetime.end.p0(i64 8, ptr %19) #7
  %147 = load i32, ptr %13, align 4
  switch i32 %147, label %149 [
    i32 10, label %148
  ]

148:                                              ; preds = %146
  store i32 0, ptr %13, align 4
  br label %149

149:                                              ; preds = %148, %146
  call void @llvm.lifetime.end.p0(i64 8, ptr %18) #7
  %150 = load i32, ptr %13, align 4
  switch i32 %150, label %174 [
    i32 0, label %151
  ]

151:                                              ; preds = %149
  br label %152

152:                                              ; preds = %151, %116
  br label %153

153:                                              ; preds = %35, %152, %92, %40, %39
  call void @llvm.lifetime.start.p0(i64 1, ptr %20) #7
  %154 = load ptr, ptr %12, align 8
  %155 = call zeroext i1 @wscbor_is_indefinite_break(ptr noundef %154)
  %156 = zext i1 %155 to i8
  store i8 %156, ptr %20, align 1
  %157 = load ptr, ptr %10, align 8
  %158 = icmp ne ptr %157, null
  br i1 %158, label %159, label %164

159:                                              ; preds = %153
  %160 = load i8, ptr %20, align 1, !range !6, !noundef !7
  %161 = trunc i8 %160 to i1
  %162 = load ptr, ptr %10, align 8
  %163 = zext i1 %161 to i8
  store i8 %163, ptr %162, align 1
  br label %164

164:                                              ; preds = %159, %153
  %165 = load ptr, ptr %12, align 8
  call void @wscbor_chunk_free(ptr noundef %165)
  %166 = load ptr, ptr %10, align 8
  %167 = icmp ne ptr %166, null
  br i1 %167, label %172, label %168

168:                                              ; preds = %164
  %169 = load i8, ptr %20, align 1, !range !6, !noundef !7
  %170 = trunc i8 %169 to i1
  %171 = xor i1 %170, true
  br label %172

172:                                              ; preds = %168, %164
  %173 = phi i1 [ true, %164 ], [ %171, %168 ]
  store i1 %173, ptr %6, align 1
  store i32 1, ptr %13, align 4
  call void @llvm.lifetime.end.p0(i64 1, ptr %20) #7
  br label %174

174:                                              ; preds = %172, %149, %114, %89, %62, %33
  call void @llvm.lifetime.end.p0(i64 8, ptr %12) #7
  br label %175

175:                                              ; preds = %174, %24
  %176 = load i1, ptr %6, align 1
  ret i1 %176
}