; Function Attrs: null_pointer_is_valid sspstrong uwtable
define internal fastcc zeroext i1 @wscbor_skip_next_item_internal(ptr noundef %0, ptr noundef %1, ptr noundef %2, ptr noundef writeonly captures(address_is_null) %3, i32 noundef %4) unnamed_addr #0 {
  %6 = alloca i8, align 1
  %7 = alloca i8, align 1
  %8 = load i32, ptr getelementptr inbounds nuw (i8, ptr @prefs, i64 236), align 4
  %9 = icmp ugt i32 %4, %8
  br i1 %9, label %.loopexit, label %10

10:                                               ; preds = %5
  %11 = tail call ptr @wscbor_chunk_read(ptr noundef %0, ptr noundef %1, ptr noundef %2)
  %12 = getelementptr inbounds nuw i8, ptr %11, i64 24
  %13 = load ptr, ptr %12, align 8
  %14 = tail call i32 @wmem_list_count(ptr noundef %13)
  %.not = icmp eq i32 %14, 0
  br i1 %.not, label %16, label %15

15:                                               ; preds = %10
  tail call void @wscbor_chunk_free(ptr noundef %11)
  br label %.loopexit

16:                                               ; preds = %10
  %17 = getelementptr inbounds nuw i8, ptr %11, i64 40
  %18 = load i32, ptr %17, align 8
  switch i32 %18, label %.critedge67 [
    i32 5, label %39
    i32 4, label %19
  ]

19:                                               ; preds = %16
  %20 = getelementptr inbounds nuw i8, ptr %11, i64 44
  %21 = load i8, ptr %20, align 4
  %22 = icmp eq i8 %21, 31
  br i1 %22, label %23, label %31

23:                                               ; preds = %19
  call void @llvm.lifetime.start.p0(i64 1, ptr nonnull %6) #9
  store i8 0, ptr %6, align 1
  %24 = add i32 %4, 1
  br label %25

25:                                               ; preds = %27, %23
  %26 = call fastcc zeroext i1 @wscbor_skip_next_item_internal(ptr noundef %0, ptr noundef %1, ptr noundef %2, ptr noundef nonnull %6, i32 noundef %24)
  br i1 %26, label %27, label %.critedge

27:                                               ; preds = %25
  %28 = load i8, ptr %6, align 1, !range !6, !noundef !7
  %29 = trunc nuw i8 %28 to i1
  br i1 %29, label %30, label %25, !llvm.loop !8

30:                                               ; preds = %27
  call void @llvm.lifetime.end.p0(i64 1, ptr nonnull %6) #9
  br label %.critedge67thread-pre-split

31:                                               ; preds = %19
  %32 = getelementptr inbounds nuw i8, ptr %11, i64 48
  %33 = load i64, ptr %32, align 8
  %.not6474.not = icmp eq i64 %33, 0
  br i1 %.not6474.not, label %.critedge67thread-pre-split, label %.lr.ph

.lr.ph:                                           ; preds = %31
  %34 = add i32 %4, 1
  br label %37

35:                                               ; preds = %37
  %36 = add nuw i64 %.06175, 1
  %exitcond.not = icmp eq i64 %36, %33
  br i1 %exitcond.not, label %.critedge67thread-pre-split, label %37, !llvm.loop !10

37:                                               ; preds = %.lr.ph, %35
  %.06175 = phi i64 [ 0, %.lr.ph ], [ %36, %35 ]
  %38 = tail call fastcc zeroext i1 @wscbor_skip_next_item_internal(ptr noundef %0, ptr noundef %1, ptr noundef %2, ptr noundef null, i32 noundef %34)
  br i1 %38, label %35, label %.loopexit

39:                                               ; preds = %16
  %40 = getelementptr inbounds nuw i8, ptr %11, i64 44
  %41 = load i8, ptr %40, align 4
  %42 = icmp eq i8 %41, 31
  br i1 %42, label %43, label %51

43:                                               ; preds = %39
  call void @llvm.lifetime.start.p0(i64 1, ptr nonnull %7) #9
  store i8 0, ptr %7, align 1
  %44 = add i32 %4, 1
  br label %45

45:                                               ; preds = %47, %43
  %46 = call fastcc zeroext i1 @wscbor_skip_next_item_internal(ptr noundef %0, ptr noundef %1, ptr noundef %2, ptr noundef nonnull %7, i32 noundef %44)
  br i1 %46, label %47, label %.critedge69

47:                                               ; preds = %45
  %48 = load i8, ptr %7, align 1, !range !6, !noundef !7
  %49 = trunc nuw i8 %48 to i1
  br i1 %49, label %50, label %45, !llvm.loop !11

50:                                               ; preds = %47
  call void @llvm.lifetime.end.p0(i64 1, ptr nonnull %7) #9
  br label %.critedge67thread-pre-split

51:                                               ; preds = %39
  %52 = getelementptr inbounds nuw i8, ptr %11, i64 48
  %53 = load i64, ptr %52, align 8
  %.not6576.not = icmp eq i64 %53, 0
  br i1 %.not6576.not, label %.critedge67thread-pre-split, label %.lr.ph78

.lr.ph78:                                         ; preds = %51
  %54 = add i32 %4, 1
  br label %57

55:                                               ; preds = %59
  %56 = add nuw i64 %.05677, 1
  %exitcond81.not = icmp eq i64 %56, %53
  br i1 %exitcond81.not, label %.critedge67thread-pre-split, label %57, !llvm.loop !12

57:                                               ; preds = %.lr.ph78, %55
  %.05677 = phi i64 [ 0, %.lr.ph78 ], [ %56, %55 ]
  %58 = tail call fastcc zeroext i1 @wscbor_skip_next_item_internal(ptr noundef %0, ptr noundef %1, ptr noundef %2, ptr noundef null, i32 noundef %54)
  br i1 %58, label %59, label %.loopexit

59:                                               ; preds = %57
  %60 = tail call fastcc zeroext i1 @wscbor_skip_next_item_internal(ptr noundef %0, ptr noundef %1, ptr noundef %2, ptr noundef null, i32 noundef %54)
  br i1 %60, label %55, label %.loopexit

.critedge67thread-pre-split:                      ; preds = %35, %55, %31, %51, %30, %50
  %.pr = load i32, ptr %17, align 8
  br label %.critedge67

.critedge67:                                      ; preds = %.critedge67thread-pre-split, %16
  %61 = phi i32 [ %.pr, %.critedge67thread-pre-split ], [ %18, %16 ]
  %62 = icmp eq i32 %61, 7
  br i1 %62, label %63, label %wscbor_is_indefinite_break.exit

63:                                               ; preds = %.critedge67
  %64 = getelementptr inbounds nuw i8, ptr %11, i64 44
  %65 = load i8, ptr %64, align 4
  %66 = icmp eq i8 %65, 31
  br label %wscbor_is_indefinite_break.exit

wscbor_is_indefinite_break.exit:                  ; preds = %.critedge67, %63
  %67 = phi i1 [ false, %.critedge67 ], [ %66, %63 ]
  %68 = icmp ne ptr %3, null
  br i1 %68, label %69, label %71

69:                                               ; preds = %wscbor_is_indefinite_break.exit
  %70 = zext i1 %67 to i8
  store i8 %70, ptr %3, align 1
  br label %71

71:                                               ; preds = %69, %wscbor_is_indefinite_break.exit
  call void @wscbor_chunk_free(ptr noundef %11)
  %72 = xor i1 %67, true
  %73 = select i1 %68, i1 true, i1 %72
  br label %.loopexit

.critedge:                                        ; preds = %25
  call void @llvm.lifetime.end.p0(i64 1, ptr nonnull %6) #9
  br label %.loopexit

.critedge69:                                      ; preds = %45
  call void @llvm.lifetime.end.p0(i64 1, ptr nonnull %7) #9
  br label %.loopexit

.loopexit:                                        ; preds = %37, %57, %59, %15, %71, %.critedge, %.critedge69, %5
  %.0 = phi i1 [ false, %5 ], [ false, %15 ], [ %73, %71 ], [ false, %.critedge ], [ false, %.critedge69 ], [ false, %59 ], [ false, %57 ], [ false, %37 ]
  ret i1 %.0
}